; Function Attrs: mustprogress nounwind uwtable
define void @glslang_program_delete(ptr noundef %0) local_unnamed_addr #0 {
  %.not = icmp eq ptr %0, null
  br i1 %.not, label %19, label %2

2:                                                ; preds = %1
  %3 = load ptr, ptr %0, align 8
  %4 = icmp eq ptr %3, null
  br i1 %4, label %9, label %5

5:                                                ; preds = %2
  %6 = load ptr, ptr %3, align 8
  %7 = getelementptr inbounds i8, ptr %6, i64 8
  %8 = load ptr, ptr %7, align 8
  tail call void %8(ptr noundef nonnull align 8 dereferenceable(497) %3) #15
  br label %9

9:                                                ; preds = %2, %5
  %10 = getelementptr inbounds i8, ptr %0, i64 32
  tail call void @_ZNSt7__cxx1112basic_stringIcSt11char_traitsIcESaIcEED1Ev(ptr noundef nonnull align 8 dereferenceable(32) %10) #15
  %11 = getelementptr inbounds i8, ptr %0, i64 8
  %12 = load ptr, ptr %11, align 8
  %.not.i.i.i.i = icmp eq ptr %12, null
  br i1 %.not.i.i.i.i, label %_ZN17glslang_program_sD2Ev.exit, label %13

13:                                               ; preds = %9
  %14 = getelementptr inbounds i8, ptr %0, i64 24
  %15 = load ptr, ptr %14, align 8
  %16 = ptrtoint ptr %15 to i64
  %17 = ptrtoint ptr %12 to i64
  %18 = sub i64 %16, %17
  tail call void @_ZdlPvm(ptr noundef nonnull %12, i64 noundef %18) #17
  br label %_ZN17glslang_program_sD2Ev.exit

_ZN17glslang_program_sD2Ev.exit:                  ; preds = %9, %13
  tail call void @_ZdlPvm(ptr noundef nonnull %0, i64 noundef 64) #17
  br label %19

19:                                               ; preds = %1, %_ZN17glslang_program_sD2Ev.exit
  ret void
}